target datalayout = "e-m:e-p270:32:32-p271:32:32-p272:64:64-i64:64-i128:128-f80:128-n8:16:32:64-S128"
target triple = "x86_64-pc-linux-gnu"

%struct.opcode_metadata = type { i8, i8, i16 }
%struct._object = type { %union.anon, ptr }
%union.anon = type { i64 }
%struct.instruction_sequence = type { %struct._object, ptr, i32, i32, i32, ptr, i32, ptr }
%struct._PyInstruction = type { i32, i32, %struct._Py_SourceLocation, %struct._PyExceptHandlerInfo, i32, i32 }
%struct._Py_SourceLocation = type { i32, i32, i32, i32 }
%struct._PyExceptHandlerInfo = type { i32, i32, i32 }
%struct.anon = type { i32, i32 }

@_PyOpcode_opcode_metadata = external constant [266 x %struct.opcode_metadata], align 16
@_Py_NoneStruct = external global %struct._object, align 8
@.str.17 = private unnamed_addr constant [9 x i8] c"(iiiiii)\00", align 1
@.str.18 = private unnamed_addr constant [9 x i8] c"(iOiiii)\00", align 1

; Function Attrs: alwaysinline nounwind uwtable
define internal i32 @_Py_IsImmortal(ptr noundef %0) #5 {
  %2 = alloca ptr, align 8
  store ptr %0, ptr %2, align 8, !tbaa !41
  %3 = load ptr, ptr %2, align 8, !tbaa !41
  %4 = getelementptr inbounds nuw %struct._object, ptr %3, i32 0, i32 0
  %5 = getelementptr inbounds nuw %struct.anon, ptr %4, i32 0, i32 0
  %6 = load i32, ptr %5, align 8, !tbaa !66
  %7 = icmp slt i32 %6, 0
  %8 = zext i1 %7 to i32
  ret i32 %8
}

; Function Attrs: inlinehint nounwind uwtable
define internal void @Py_XDECREF(ptr noundef %0) #4 {
  %2 = alloca ptr, align 8
  store ptr %0, ptr %2, align 8, !tbaa !41
  %3 = load ptr, ptr %2, align 8, !tbaa !41
  %4 = icmp ne ptr %3, null
  br i1 %4, label %5, label %7

5:                                                ; preds = %1
  %6 = load ptr, ptr %2, align 8, !tbaa !41
  call void @Py_DECREF(ptr noundef %6)
  br label %7

7:                                                ; preds = %5, %1
  ret void
}

; Function Attrs: alwaysinline nounwind uwtable
define internal void @Py_DECREF(ptr noundef %0) #5 {
  %2 = alloca ptr, align 8
  store ptr %0, ptr %2, align 8, !tbaa !41
  %3 = load ptr, ptr %2, align 8, !tbaa !41
  %4 = call i32 @_Py_IsImmortal(ptr noundef %3)
  %5 = icmp ne i32 %4, 0
  br i1 %5, label %6, label %7

6:                                                ; preds = %1
  br label %16

7:                                                ; preds = %1
  %8 = load ptr, ptr %2, align 8, !tbaa !41
  %9 = getelementptr inbounds nuw %struct._object, ptr %8, i32 0, i32 0
  %10 = getelementptr inbounds nuw %struct.anon, ptr %9, i32 0, i32 0
  %11 = load i32, ptr %10, align 8, !tbaa !66
  %12 = add i32 %11, -1
  store i32 %12, ptr %10, align 8, !tbaa !66
  %13 = icmp eq i32 %12, 0
  br i1 %13, label %14, label %16

14:                                               ; preds = %7
  %15 = load ptr, ptr %2, align 8, !tbaa !41
  call void @_Py_Dealloc(ptr noundef %15)
  br label %16

16:                                               ; preds = %6, %14, %7
  ret void
}

; Function Attrs: nounwind uwtable
define hidden i32 @_PyInstructionSequence_ApplyLabelMap(ptr noundef %0) #0 {
  %2 = alloca i32, align 4
  %3 = alloca ptr, align 8
  %4 = alloca i32, align 4
  %5 = alloca ptr, align 8
  %6 = alloca ptr, align 8
  store ptr %0, ptr %3, align 8, !tbaa !4
  %7 = load ptr, ptr %3, align 8, !tbaa !4
  %8 = getelementptr inbounds nuw %struct.instruction_sequence, ptr %7, i32 0, i32 5
  %9 = load ptr, ptr %8, align 8, !tbaa !20
  %10 = icmp eq ptr %9, null
  br i1 %10, label %11, label %12

11:                                               ; preds = %1
  store i32 0, ptr %2, align 4
  br label %95

12:                                               ; preds = %1
  call void @llvm.lifetime.start.p0(i64 4, ptr %4) #6
  store i32 0, ptr %4, align 4, !tbaa !18
  br label %13

13:                                               ; preds = %84, %12
  %14 = load i32, ptr %4, align 4, !tbaa !18
  %15 = load ptr, ptr %3, align 8, !tbaa !4
  %16 = getelementptr inbounds nuw %struct.instruction_sequence, ptr %15, i32 0, i32 3
  %17 = load i32, ptr %16, align 4, !tbaa !23
  %18 = icmp slt i32 %14, %17
  br i1 %18, label %20, label %19

19:                                               ; preds = %13
  call void @llvm.lifetime.end.p0(i64 4, ptr %4) #6
  br label %87

20:                                               ; preds = %13
  call void @llvm.lifetime.start.p0(i64 8, ptr %5) #6
  %21 = load ptr, ptr %3, align 8, !tbaa !4
  %22 = getelementptr inbounds nuw %struct.instruction_sequence, ptr %21, i32 0, i32 1
  %23 = load ptr, ptr %22, align 8, !tbaa !24
  %24 = load i32, ptr %4, align 4, !tbaa !18
  %25 = sext i32 %24 to i64
  %26 = getelementptr %struct._PyInstruction, ptr %23, i64 %25
  store ptr %26, ptr %5, align 8, !tbaa !25
  %27 = load ptr, ptr %5, align 8, !tbaa !25
  %28 = getelementptr inbounds nuw %struct._PyInstruction, ptr %27, i32 0, i32 0
  %29 = load i32, ptr %28, align 4, !tbaa !26
  %30 = sext i32 %29 to i64
  %31 = getelementptr [266 x %struct.opcode_metadata], ptr @_PyOpcode_opcode_metadata, i64 0, i64 %30
  %32 = getelementptr inbounds nuw %struct.opcode_metadata, ptr %31, i32 0, i32 2
  %33 = load i16, ptr %32, align 2, !tbaa !30
  %34 = zext i16 %33 to i32
  %35 = and i32 %34, 8
  %36 = icmp ne i32 %35, 0
  br i1 %36, label %52, label %37

37:                                               ; preds = %20
  %38 = load ptr, ptr %5, align 8, !tbaa !25
  %39 = getelementptr inbounds nuw %struct._PyInstruction, ptr %38, i32 0, i32 0
  %40 = load i32, ptr %39, align 4, !tbaa !26
  %41 = icmp eq i32 %40, 263
  br i1 %41, label %52, label %42

42:                                               ; preds = %37
  %43 = load ptr, ptr %5, align 8, !tbaa !25
  %44 = getelementptr inbounds nuw %struct._PyInstruction, ptr %43, i32 0, i32 0
  %45 = load i32, ptr %44, align 4, !tbaa !26
  %46 = icmp eq i32 %45, 264
  br i1 %46, label %52, label %47

47:                                               ; preds = %42
  %48 = load ptr, ptr %5, align 8, !tbaa !25
  %49 = getelementptr inbounds nuw %struct._PyInstruction, ptr %48, i32 0, i32 0
  %50 = load i32, ptr %49, align 4, !tbaa !26
  %51 = icmp eq i32 %50, 262
  br i1 %51, label %52, label %64

52:                                               ; preds = %47, %42, %37, %20
  %53 = load ptr, ptr %3, align 8, !tbaa !4
  %54 = getelementptr inbounds nuw %struct.instruction_sequence, ptr %53, i32 0, i32 5
  %55 = load ptr, ptr %54, align 8, !tbaa !20
  %56 = load ptr, ptr %5, align 8, !tbaa !25
  %57 = getelementptr inbounds nuw %struct._PyInstruction, ptr %56, i32 0, i32 1
  %58 = load i32, ptr %57, align 4, !tbaa !33
  %59 = sext i32 %58 to i64
  %60 = getelementptr i32, ptr %55, i64 %59
  %61 = load i32, ptr %60, align 4, !tbaa !18
  %62 = load ptr, ptr %5, align 8, !tbaa !25
  %63 = getelementptr inbounds nuw %struct._PyInstruction, ptr %62, i32 0, i32 1
  store i32 %61, ptr %63, align 4, !tbaa !33
  br label %64

64:                                               ; preds = %52, %47
  call void @llvm.lifetime.start.p0(i64 8, ptr %6) #6
  %65 = load ptr, ptr %5, align 8, !tbaa !25
  %66 = getelementptr inbounds nuw %struct._PyInstruction, ptr %65, i32 0, i32 3
  store ptr %66, ptr %6, align 8, !tbaa !25
  %67 = load ptr, ptr %6, align 8, !tbaa !25
  %68 = getelementptr inbounds nuw %struct._PyExceptHandlerInfo, ptr %67, i32 0, i32 0
  %69 = load i32, ptr %68, align 4, !tbaa !34
  %70 = icmp sge i32 %69, 0
  br i1 %70, label %71, label %83

71:                                               ; preds = %64
  %72 = load ptr, ptr %3, align 8, !tbaa !4
  %73 = getelementptr inbounds nuw %struct.instruction_sequence, ptr %72, i32 0, i32 5
  %74 = load ptr, ptr %73, align 8, !tbaa !20
  %75 = load ptr, ptr %6, align 8, !tbaa !25
  %76 = getelementptr inbounds nuw %struct._PyExceptHandlerInfo, ptr %75, i32 0, i32 0
  %77 = load i32, ptr %76, align 4, !tbaa !34
  %78 = sext i32 %77 to i64
  %79 = getelementptr i32, ptr %74, i64 %78
  %80 = load i32, ptr %79, align 4, !tbaa !18
  %81 = load ptr, ptr %6, align 8, !tbaa !25
  %82 = getelementptr inbounds nuw %struct._PyExceptHandlerInfo, ptr %81, i32 0, i32 0
  store i32 %80, ptr %82, align 4, !tbaa !34
  br label %83

83:                                               ; preds = %71, %64
  call void @llvm.lifetime.end.p0(i64 8, ptr %6) #6
  call void @llvm.lifetime.end.p0(i64 8, ptr %5) #6
  br label %84

84:                                               ; preds = %83
  %85 = load i32, ptr %4, align 4, !tbaa !18
  %86 = add i32 %85, 1
  store i32 %86, ptr %4, align 4, !tbaa !18
  br label %13, !llvm.loop !35

87:                                               ; preds = %19
  %88 = load ptr, ptr %3, align 8, !tbaa !4
  %89 = getelementptr inbounds nuw %struct.instruction_sequence, ptr %88, i32 0, i32 5
  %90 = load ptr, ptr %89, align 8, !tbaa !20
  call void @PyMem_Free(ptr noundef %90)
  %91 = load ptr, ptr %3, align 8, !tbaa !4
  %92 = getelementptr inbounds nuw %struct.instruction_sequence, ptr %91, i32 0, i32 5
  store ptr null, ptr %92, align 8, !tbaa !20
  %93 = load ptr, ptr %3, align 8, !tbaa !4
  %94 = getelementptr inbounds nuw %struct.instruction_sequence, ptr %93, i32 0, i32 6
  store i32 0, ptr %94, align 8, !tbaa !19
  store i32 0, ptr %2, align 4
  br label %95

95:                                               ; preds = %87, %11
  %96 = load i32, ptr %2, align 4
  ret i32 %96
}

; Function Attrs: nounwind uwtable
define internal ptr @InstructionSequenceType_get_instructions_impl(ptr noundef %0) #0 {
  %2 = alloca ptr, align 8
  %3 = alloca ptr, align 8
  %4 = alloca ptr, align 8
  %5 = alloca i32, align 4
  %6 = alloca i32, align 4
  %7 = alloca ptr, align 8
  %8 = alloca %struct._Py_SourceLocation, align 4
  %9 = alloca ptr, align 8
  %10 = alloca i32, align 4
  store ptr %0, ptr %3, align 8, !tbaa !4
  %11 = load ptr, ptr %3, align 8, !tbaa !4
  %12 = call i32 @_PyInstructionSequence_ApplyLabelMap(ptr noundef %11)
  %13 = icmp slt i32 %12, 0
  br i1 %13, label %14, label %15

14:                                               ; preds = %1
  store ptr null, ptr %2, align 8
  br label %103

15:                                               ; preds = %1
  call void @llvm.lifetime.start.p0(i64 8, ptr %4) #6
  %16 = call ptr @PyList_New(i64 noundef 0)
  store ptr %16, ptr %4, align 8, !tbaa !41
  %17 = load ptr, ptr %4, align 8, !tbaa !41
  %18 = icmp eq ptr %17, null
  br i1 %18, label %19, label %20

19:                                               ; preds = %15
  store ptr null, ptr %2, align 8
  store i32 1, ptr %5, align 4
  br label %102

20:                                               ; preds = %15
  call void @llvm.lifetime.start.p0(i64 4, ptr %6) #6
  store i32 0, ptr %6, align 4, !tbaa !18
  br label %21

21:                                               ; preds = %93, %20
  %22 = load i32, ptr %6, align 4, !tbaa !18
  %23 = load ptr, ptr %3, align 8, !tbaa !4
  %24 = getelementptr inbounds nuw %struct.instruction_sequence, ptr %23, i32 0, i32 3
  %25 = load i32, ptr %24, align 4, !tbaa !23
  %26 = icmp slt i32 %22, %25
  br i1 %26, label %28, label %27

27:                                               ; preds = %21
  store i32 2, ptr %5, align 4
  br label %96

28:                                               ; preds = %21
  call void @llvm.lifetime.start.p0(i64 8, ptr %7) #6
  %29 = load ptr, ptr %3, align 8, !tbaa !4
  %30 = getelementptr inbounds nuw %struct.instruction_sequence, ptr %29, i32 0, i32 1
  %31 = load ptr, ptr %30, align 8, !tbaa !24
  %32 = load i32, ptr %6, align 4, !tbaa !18
  %33 = sext i32 %32 to i64
  %34 = getelementptr %struct._PyInstruction, ptr %31, i64 %33
  store ptr %34, ptr %7, align 8, !tbaa !25
  call void @llvm.lifetime.start.p0(i64 16, ptr %8) #6
  %35 = load ptr, ptr %7, align 8, !tbaa !25
  %36 = getelementptr inbounds nuw %struct._PyInstruction, ptr %35, i32 0, i32 2
  call void @llvm.memcpy.p0.p0.i64(ptr align 4 %8, ptr align 4 %36, i64 16, i1 false), !tbaa.struct !36
  call void @llvm.lifetime.start.p0(i64 8, ptr %9) #6
  %37 = load ptr, ptr %7, align 8, !tbaa !25
  %38 = getelementptr inbounds nuw %struct._PyInstruction, ptr %37, i32 0, i32 0
  %39 = load i32, ptr %38, align 4, !tbaa !26
  %40 = sext i32 %39 to i64
  %41 = getelementptr [266 x %struct.opcode_metadata], ptr @_PyOpcode_opcode_metadata, i64 0, i64 %40
  %42 = getelementptr inbounds nuw %struct.opcode_metadata, ptr %41, i32 0, i32 2
  %43 = load i16, ptr %42, align 2, !tbaa !30
  %44 = zext i16 %43 to i32
  %45 = and i32 %44, 1
  %46 = icmp ne i32 %45, 0
  br i1 %46, label %47, label %63

47:                                               ; preds = %28
  %48 = load ptr, ptr %7, align 8, !tbaa !25
  %49 = getelementptr inbounds nuw %struct._PyInstruction, ptr %48, i32 0, i32 0
  %50 = load i32, ptr %49, align 4, !tbaa !26
  %51 = load ptr, ptr %7, align 8, !tbaa !25
  %52 = getelementptr inbounds nuw %struct._PyInstruction, ptr %51, i32 0, i32 1
  %53 = load i32, ptr %52, align 4, !tbaa !33
  %54 = getelementptr inbounds nuw %struct._Py_SourceLocation, ptr %8, i32 0, i32 0
  %55 = load i32, ptr %54, align 4, !tbaa !69
  %56 = getelementptr inbounds nuw %struct._Py_SourceLocation, ptr %8, i32 0, i32 1
  %57 = load i32, ptr %56, align 4, !tbaa !70
  %58 = getelementptr inbounds nuw %struct._Py_SourceLocation, ptr %8, i32 0, i32 2
  %59 = load i32, ptr %58, align 4, !tbaa !71
  %60 = getelementptr inbounds nuw %struct._Py_SourceLocation, ptr %8, i32 0, i32 3
  %61 = load i32, ptr %60, align 4, !tbaa !72
  %62 = call ptr (ptr, ...) @Py_BuildValue(ptr noundef @.str.17, i32 noundef %50, i32 noundef %53, i32 noundef %55, i32 noundef %57, i32 noundef %59, i32 noundef %61)
  store ptr %62, ptr %9, align 8, !tbaa !41
  br label %76

63:                                               ; preds = %28
  %64 = load ptr, ptr %7, align 8, !tbaa !25
  %65 = getelementptr inbounds nuw %struct._PyInstruction, ptr %64, i32 0, i32 0
  %66 = load i32, ptr %65, align 4, !tbaa !26
  %67 = getelementptr inbounds nuw %struct._Py_SourceLocation, ptr %8, i32 0, i32 0
  %68 = load i32, ptr %67, align 4, !tbaa !69
  %69 = getelementptr inbounds nuw %struct._Py_SourceLocation, ptr %8, i32 0, i32 1
  %70 = load i32, ptr %69, align 4, !tbaa !70
  %71 = getelementptr inbounds nuw %struct._Py_SourceLocation, ptr %8, i32 0, i32 2
  %72 = load i32, ptr %71, align 4, !tbaa !71
  %73 = getelementptr inbounds nuw %struct._Py_SourceLocation, ptr %8, i32 0, i32 3
  %74 = load i32, ptr %73, align 4, !tbaa !72
  %75 = call ptr (ptr, ...) @Py_BuildValue(ptr noundef @.str.18, i32 noundef %66, ptr noundef @_Py_NoneStruct, i32 noundef %68, i32 noundef %70, i32 noundef %72, i32 noundef %74)
  store ptr %75, ptr %9, align 8, !tbaa !41
  br label %76

76:                                               ; preds = %63, %47
  %77 = load ptr, ptr %9, align 8, !tbaa !41
  %78 = icmp eq ptr %77, null
  br i1 %78, label %79, label %80

79:                                               ; preds = %76
  store i32 5, ptr %5, align 4
  br label %90

80:                                               ; preds = %76
  call void @llvm.lifetime.start.p0(i64 4, ptr %10) #6
  %81 = load ptr, ptr %4, align 8, !tbaa !41
  %82 = load ptr, ptr %9, align 8, !tbaa !41
  %83 = call i32 @PyList_Append(ptr noundef %81, ptr noundef %82)
  store i32 %83, ptr %10, align 4, !tbaa !18
  %84 = load ptr, ptr %9, align 8, !tbaa !41
  call void @Py_DECREF(ptr noundef %84)
  %85 = load i32, ptr %10, align 4, !tbaa !18
  %86 = icmp ne i32 %85, 0
  br i1 %86, label %87, label %88

87:                                               ; preds = %80
  store i32 5, ptr %5, align 4
  br label %89

88:                                               ; preds = %80
  store i32 0, ptr %5, align 4
  br label %89

89:                                               ; preds = %87, %88
  call void @llvm.lifetime.end.p0(i64 4, ptr %10) #6
  br label %90

90:                                               ; preds = %79, %89
  call void @llvm.lifetime.end.p0(i64 8, ptr %9) #6
  call void @llvm.lifetime.end.p0(i64 16, ptr %8) #6
  call void @llvm.lifetime.end.p0(i64 8, ptr %7) #6
  %91 = load i32, ptr %5, align 4
  switch i32 %91, label %96 [
    i32 0, label %92
  ]

92:                                               ; preds = %90
  br label %93

93:                                               ; preds = %92
  %94 = load i32, ptr %6, align 4, !tbaa !18
  %95 = add i32 %94, 1
  store i32 %95, ptr %6, align 4, !tbaa !18
  br label %21, !llvm.loop !73

96:                                               ; preds = %90, %27
  call void @llvm.lifetime.end.p0(i64 4, ptr %6) #6
  %97 = load i32, ptr %5, align 4
  switch i32 %97, label %102 [
    i32 2, label %98
    i32 5, label %100
  ]

98:                                               ; preds = %96
  %99 = load ptr, ptr %4, align 8, !tbaa !41
  store ptr %99, ptr %2, align 8
  store i32 1, ptr %5, align 4
  br label %102

100:                                              ; preds = %96
  %101 = load ptr, ptr %4, align 8, !tbaa !41
  call void @Py_XDECREF(ptr noundef %101)
  store ptr null, ptr %2, align 8
  store i32 1, ptr %5, align 4
  br label %102

102:                                              ; preds = %100, %98, %96, %19
  call void @llvm.lifetime.end.p0(i64 8, ptr %4) #6
  br label %103

103:                                              ; preds = %102, %14
  %104 = load ptr, ptr %2, align 8
  ret ptr %104
}

; Function Attrs: nounwind uwtable
define internal ptr @InstructionSequenceType_get_instructions(ptr noundef %0, ptr noundef %1) #0 {
  %3 = alloca ptr, align 8
  %4 = alloca ptr, align 8
  store ptr %0, ptr %3, align 8, !tbaa !41
  store ptr %1, ptr %4, align 8, !tbaa !41
  %5 = load ptr, ptr %3, align 8, !tbaa !41
  %6 = call ptr @InstructionSequenceType_get_instructions_impl(ptr noundef %5)
  ret ptr %6
}