; Function Attrs: nounwind uwtable
define internal ptr @InstructionSequenceType_get_instructions(ptr noundef captures(none) %0, ptr readnone captures(none) %1) #1 {
  %3 = getelementptr inbounds nuw i8, ptr %0, i64 40
  %4 = load ptr, ptr %3, align 8, !tbaa !15
  %5 = icmp eq ptr %4, null
  br i1 %5, label %_PyInstructionSequence_ApplyLabelMap.exit.i, label %.preheader.i.i

.preheader.i.i:                                   ; preds = %2
  %6 = getelementptr inbounds nuw i8, ptr %0, i64 28
  %7 = load i32, ptr %6, align 4, !tbaa !16
  %8 = icmp sgt i32 %7, 0
  br i1 %8, label %.lr.ph.i.i, label %._crit_edge.i.i

.lr.ph.i.i:                                       ; preds = %.preheader.i.i
  %9 = getelementptr inbounds nuw i8, ptr %0, i64 16
  %10 = load ptr, ptr %9, align 8, !tbaa !20
  %wide.trip.count.i.i = zext nneg i32 %7 to i64
  br label %12

._crit_edge.i.i:                                  ; preds = %33, %.preheader.i.i
  tail call void @PyMem_Free(ptr noundef nonnull %4) #6
  store ptr null, ptr %3, align 8, !tbaa !15
  %11 = getelementptr inbounds nuw i8, ptr %0, i64 48
  store i32 0, ptr %11, align 8, !tbaa !14
  br label %_PyInstructionSequence_ApplyLabelMap.exit.i

12:                                               ; preds = %33, %.lr.ph.i.i
  %indvars.iv.i.i = phi i64 [ 0, %.lr.ph.i.i ], [ %indvars.iv.next.i.i, %33 ]
  %13 = getelementptr %struct._PyInstruction, ptr %10, i64 %indvars.iv.i.i
  %14 = load i32, ptr %13, align 4, !tbaa !21
  %15 = sext i32 %14 to i64
  %16 = getelementptr [266 x %struct.opcode_metadata], ptr @_PyOpcode_opcode_metadata, i64 0, i64 %15, i32 2
  %17 = load i16, ptr %16, align 2, !tbaa !25
  %.fr25.i.i = freeze i16 %17
  %18 = and i16 %.fr25.i.i, 8
  %.not.i32.i = icmp ne i16 %18, 0
  %.off.i.i = add i32 %14, -262
  %switch.i.i = icmp ult i32 %.off.i.i, 3
  %or.cond.i.i = or i1 %switch.i.i, %.not.i32.i
  br i1 %or.cond.i.i, label %19, label %25

19:                                               ; preds = %12
  %20 = getelementptr inbounds nuw i8, ptr %13, i64 4
  %21 = load i32, ptr %20, align 4, !tbaa !28
  %22 = sext i32 %21 to i64
  %23 = getelementptr i32, ptr %4, i64 %22
  %24 = load i32, ptr %23, align 4, !tbaa !17
  store i32 %24, ptr %20, align 4, !tbaa !28
  br label %25

25:                                               ; preds = %19, %12
  %26 = getelementptr inbounds nuw i8, ptr %13, i64 24
  %27 = load i32, ptr %26, align 4, !tbaa !29
  %28 = icmp sgt i32 %27, -1
  br i1 %28, label %29, label %33

29:                                               ; preds = %25
  %30 = zext nneg i32 %27 to i64
  %31 = getelementptr i32, ptr %4, i64 %30
  %32 = load i32, ptr %31, align 4, !tbaa !17
  store i32 %32, ptr %26, align 4, !tbaa !29
  br label %33

33:                                               ; preds = %29, %25
  %indvars.iv.next.i.i = add nuw nsw i64 %indvars.iv.i.i, 1
  %exitcond.not.i.i = icmp eq i64 %indvars.iv.next.i.i, %wide.trip.count.i.i
  br i1 %exitcond.not.i.i, label %._crit_edge.i.i, label %12, !llvm.loop !30

_PyInstructionSequence_ApplyLabelMap.exit.i:      ; preds = %._crit_edge.i.i, %2
  %34 = tail call ptr @PyList_New(i64 noundef 0) #6
  %35 = icmp eq ptr %34, null
  br i1 %35, label %InstructionSequenceType_get_instructions_impl.exit, label %.preheader.i

.preheader.i:                                     ; preds = %_PyInstructionSequence_ApplyLabelMap.exit.i
  %36 = getelementptr inbounds nuw i8, ptr %0, i64 28
  %37 = load i32, ptr %36, align 4, !tbaa !16
  %38 = icmp sgt i32 %37, 0
  br i1 %38, label %.lr.ph.i, label %InstructionSequenceType_get_instructions_impl.exit

.lr.ph.i:                                         ; preds = %.preheader.i
  %39 = getelementptr inbounds nuw i8, ptr %0, i64 16
  br label %44

40:                                               ; preds = %Py_DECREF.exit.i
  %indvars.iv.next.i = add nuw nsw i64 %indvars.iv.i, 1
  %41 = load i32, ptr %36, align 4, !tbaa !16
  %42 = sext i32 %41 to i64
  %43 = icmp slt i64 %indvars.iv.next.i, %42
  br i1 %43, label %44, label %InstructionSequenceType_get_instructions_impl.exit, !llvm.loop !58

44:                                               ; preds = %40, %.lr.ph.i
  %indvars.iv.i = phi i64 [ 0, %.lr.ph.i ], [ %indvars.iv.next.i, %40 ]
  %45 = load ptr, ptr %39, align 8, !tbaa !20
  %46 = getelementptr %struct._PyInstruction, ptr %45, i64 %indvars.iv.i
  %47 = getelementptr inbounds nuw i8, ptr %46, i64 8
  %.sroa.0.0.copyload.i = load i32, ptr %47, align 4, !tbaa !17
  %.sroa.5.0..sroa_idx.i = getelementptr inbounds nuw i8, ptr %46, i64 12
  %.sroa.5.0.copyload.i = load i32, ptr %.sroa.5.0..sroa_idx.i, align 4, !tbaa !17
  %.sroa.7.0..sroa_idx.i = getelementptr inbounds nuw i8, ptr %46, i64 16
  %.sroa.7.0.copyload.i = load i32, ptr %.sroa.7.0..sroa_idx.i, align 4, !tbaa !17
  %.sroa.9.0..sroa_idx.i = getelementptr inbounds nuw i8, ptr %46, i64 20
  %.sroa.9.0.copyload.i = load i32, ptr %.sroa.9.0..sroa_idx.i, align 4, !tbaa !17
  %48 = load i32, ptr %46, align 4, !tbaa !21
  %49 = sext i32 %48 to i64
  %50 = getelementptr [266 x %struct.opcode_metadata], ptr @_PyOpcode_opcode_metadata, i64 0, i64 %49, i32 2
  %51 = load i16, ptr %50, align 2, !tbaa !25
  %52 = and i16 %51, 1
  %.not.i = icmp eq i16 %52, 0
  br i1 %.not.i, label %57, label %53

53:                                               ; preds = %44
  %54 = getelementptr inbounds nuw i8, ptr %46, i64 4
  %55 = load i32, ptr %54, align 4, !tbaa !28
  %56 = tail call ptr (ptr, ...) @Py_BuildValue(ptr noundef nonnull @.str.17, i32 noundef %48, i32 noundef %55, i32 noundef %.sroa.0.0.copyload.i, i32 noundef %.sroa.5.0.copyload.i, i32 noundef %.sroa.7.0.copyload.i, i32 noundef %.sroa.9.0.copyload.i) #6
  br label %59

57:                                               ; preds = %44
  %58 = tail call ptr (ptr, ...) @Py_BuildValue(ptr noundef nonnull @.str.18, i32 noundef %48, ptr noundef nonnull @_Py_NoneStruct, i32 noundef %.sroa.0.0.copyload.i, i32 noundef %.sroa.5.0.copyload.i, i32 noundef %.sroa.7.0.copyload.i, i32 noundef %.sroa.9.0.copyload.i) #6
  br label %59

59:                                               ; preds = %57, %53
  %.025.i = phi ptr [ %56, %53 ], [ %58, %57 ]
  %60 = icmp eq ptr %.025.i, null
  br i1 %60, label %68, label %61

61:                                               ; preds = %59
  %62 = tail call i32 @PyList_Append(ptr noundef nonnull %34, ptr noundef nonnull %.025.i) #6
  %63 = load i32, ptr %.025.i, align 8, !tbaa !35
  %.not.i.i = icmp sgt i32 %63, -1
  br i1 %.not.i.i, label %64, label %Py_DECREF.exit.i

64:                                               ; preds = %61
  %65 = add nsw i32 %63, -1
  store i32 %65, ptr %.025.i, align 8, !tbaa !35
  %66 = icmp eq i32 %65, 0
  br i1 %66, label %67, label %Py_DECREF.exit.i

67:                                               ; preds = %64
  tail call void @_Py_Dealloc(ptr noundef nonnull %.025.i) #6
  br label %Py_DECREF.exit.i

Py_DECREF.exit.i:                                 ; preds = %67, %64, %61
  %.not30.i = icmp eq i32 %62, 0
  br i1 %.not30.i, label %40, label %68

68:                                               ; preds = %Py_DECREF.exit.i, %59
  %69 = load i32, ptr %34, align 8, !tbaa !35
  %.not.i.i.i = icmp sgt i32 %69, -1
  br i1 %.not.i.i.i, label %70, label %InstructionSequenceType_get_instructions_impl.exit

70:                                               ; preds = %68
  %71 = add nsw i32 %69, -1
  store i32 %71, ptr %34, align 8, !tbaa !35
  %72 = icmp eq i32 %71, 0
  br i1 %72, label %73, label %InstructionSequenceType_get_instructions_impl.exit

73:                                               ; preds = %70
  tail call void @_Py_Dealloc(ptr noundef nonnull %34) #6
  br label %InstructionSequenceType_get_instructions_impl.exit

InstructionSequenceType_get_instructions_impl.exit: ; preds = %40, %_PyInstructionSequence_ApplyLabelMap.exit.i, %.preheader.i, %68, %70, %73
  %.1.i = phi ptr [ null, %_PyInstructionSequence_ApplyLabelMap.exit.i ], [ null, %68 ], [ null, %70 ], [ null, %73 ], [ %34, %.preheader.i ], [ %34, %40 ]
  ret ptr %.1.i
}